target datalayout = "e-m:e-p270:32:32-p271:32:32-p272:64:64-i64:64-i128:128-f80:128-n8:16:32:64-S128"
target triple = "x86_64-pc-linux-gnu"

%"struct.icu_77::CompositionPair" = type { i32, i32 }
%"struct.icu_77::Norm" = type { ptr, ptr, i32, i32, i32, ptr, i8, i8, i8, i8, i8, i8, i32, i32, ptr }
%"class.icu_77::UObject" = type { ptr }
%"class.icu_77::UVector32" = type { %"class.icu_77::UObject", i32, i32, i32, ptr }

; Function Attrs: inlinehint mustprogress nounwind uwtable
define linkonce_odr dso_local noundef ptr @_ZNK6icu_779UVector329getBufferEv(ptr noundef nonnull align 8 dereferenceable(32) %0) #7 comdat align 2 {
  %2 = alloca ptr, align 8
  store ptr %0, ptr %2, align 8, !tbaa !90
  %3 = load ptr, ptr %2, align 8
  %4 = getelementptr inbounds nuw %"class.icu_77::UVector32", ptr %3, i32 0, i32 4
  %5 = load ptr, ptr %4, align 8, !tbaa !105
  ret ptr %5
}

; Function Attrs: inlinehint mustprogress nounwind uwtable
define linkonce_odr dso_local noundef i32 @_ZNK6icu_779UVector324sizeEv(ptr noundef nonnull align 8 dereferenceable(32) %0) #7 comdat align 2 {
  %2 = alloca ptr, align 8
  store ptr %0, ptr %2, align 8, !tbaa !90
  %3 = load ptr, ptr %2, align 8
  %4 = getelementptr inbounds nuw %"class.icu_77::UVector32", ptr %3, i32 0, i32 1
  %5 = load i32, ptr %4, align 8, !tbaa !103
  ret i32 %5
}

; Function Attrs: mustprogress uwtable
define linkonce_odr dso_local noundef ptr @_ZNK6icu_774Norm19getCompositionPairsERi(ptr noundef nonnull align 8 dereferenceable(64) %0, ptr noundef nonnull align 4 dereferenceable(4) %1) #0 comdat align 2 {
  %3 = alloca ptr, align 8
  %4 = alloca ptr, align 8
  %5 = alloca ptr, align 8
  store ptr %0, ptr %4, align 8, !tbaa !22
  store ptr %1, ptr %5, align 8, !tbaa !30
  %6 = load ptr, ptr %4, align 8
  %7 = getelementptr inbounds nuw %"struct.icu_77::Norm", ptr %6, i32 0, i32 5
  %8 = load ptr, ptr %7, align 8, !tbaa !32
  %9 = icmp eq ptr %8, null
  br i1 %9, label %10, label %12

10:                                               ; preds = %2
  %11 = load ptr, ptr %5, align 8, !tbaa !30
  store i32 0, ptr %11, align 4, !tbaa !9
  store ptr null, ptr %3, align 8
  br label %21

12:                                               ; preds = %2
  %13 = getelementptr inbounds nuw %"struct.icu_77::Norm", ptr %6, i32 0, i32 5
  %14 = load ptr, ptr %13, align 8, !tbaa !32
  %15 = call noundef i32 @_ZNK6icu_779UVector324sizeEv(ptr noundef nonnull align 8 dereferenceable(32) %14)
  %16 = sdiv i32 %15, 2
  %17 = load ptr, ptr %5, align 8, !tbaa !30
  store i32 %16, ptr %17, align 4, !tbaa !9
  %18 = getelementptr inbounds nuw %"struct.icu_77::Norm", ptr %6, i32 0, i32 5
  %19 = load ptr, ptr %18, align 8, !tbaa !32
  %20 = call noundef ptr @_ZNK6icu_779UVector329getBufferEv(ptr noundef nonnull align 8 dereferenceable(32) %19)
  store ptr %20, ptr %3, align 8
  br label %21

21:                                               ; preds = %12, %10
  %22 = load ptr, ptr %3, align 8
  ret ptr %22
}

; Function Attrs: mustprogress uwtable
define dso_local noundef i32 @_ZNK6icu_774Norm7combineEi(ptr noundef nonnull align 8 dereferenceable(64) %0, i32 noundef %1) #0 align 2 {
  %3 = alloca i32, align 4
  %4 = alloca ptr, align 8
  %5 = alloca i32, align 4
  %6 = alloca i32, align 4
  %7 = alloca ptr, align 8
  %8 = alloca i32, align 4
  %9 = alloca i32, align 4
  store ptr %0, ptr %4, align 8, !tbaa !22
  store i32 %1, ptr %5, align 4, !tbaa !9
  %10 = load ptr, ptr %4, align 8
  call void @llvm.lifetime.start.p0(i64 4, ptr %6) #11
  call void @llvm.lifetime.start.p0(i64 8, ptr %7) #11
  %11 = call noundef ptr @_ZNK6icu_774Norm19getCompositionPairsERi(ptr noundef nonnull align 8 dereferenceable(64) %10, ptr noundef nonnull align 4 dereferenceable(4) %6)
  store ptr %11, ptr %7, align 8, !tbaa !24
  call void @llvm.lifetime.start.p0(i64 4, ptr %8) #11
  store i32 0, ptr %8, align 4, !tbaa !9
  br label %12

12:                                               ; preds = %44, %2
  %13 = load i32, ptr %8, align 4, !tbaa !9
  %14 = load i32, ptr %6, align 4, !tbaa !9
  %15 = icmp slt i32 %13, %14
  br i1 %15, label %17, label %16

16:                                               ; preds = %12
  store i32 2, ptr %9, align 4
  br label %47

17:                                               ; preds = %12
  %18 = load i32, ptr %5, align 4, !tbaa !9
  %19 = load ptr, ptr %7, align 8, !tbaa !24
  %20 = load i32, ptr %8, align 4, !tbaa !9
  %21 = sext i32 %20 to i64
  %22 = getelementptr inbounds %"struct.icu_77::CompositionPair", ptr %19, i64 %21
  %23 = getelementptr inbounds nuw %"struct.icu_77::CompositionPair", ptr %22, i32 0, i32 0
  %24 = load i32, ptr %23, align 4, !tbaa !26
  %25 = icmp eq i32 %18, %24
  br i1 %25, label %26, label %33

26:                                               ; preds = %17
  %27 = load ptr, ptr %7, align 8, !tbaa !24
  %28 = load i32, ptr %8, align 4, !tbaa !9
  %29 = sext i32 %28 to i64
  %30 = getelementptr inbounds %"struct.icu_77::CompositionPair", ptr %27, i64 %29
  %31 = getelementptr inbounds nuw %"struct.icu_77::CompositionPair", ptr %30, i32 0, i32 1
  %32 = load i32, ptr %31, align 4, !tbaa !28
  store i32 %32, ptr %3, align 4
  store i32 1, ptr %9, align 4
  br label %47

33:                                               ; preds = %17
  %34 = load i32, ptr %5, align 4, !tbaa !9
  %35 = load ptr, ptr %7, align 8, !tbaa !24
  %36 = load i32, ptr %8, align 4, !tbaa !9
  %37 = sext i32 %36 to i64
  %38 = getelementptr inbounds %"struct.icu_77::CompositionPair", ptr %35, i64 %37
  %39 = getelementptr inbounds nuw %"struct.icu_77::CompositionPair", ptr %38, i32 0, i32 0
  %40 = load i32, ptr %39, align 4, !tbaa !26
  %41 = icmp slt i32 %34, %40
  br i1 %41, label %42, label %43

42:                                               ; preds = %33
  store i32 2, ptr %9, align 4
  br label %47

43:                                               ; preds = %33
  br label %44

44:                                               ; preds = %43
  %45 = load i32, ptr %8, align 4, !tbaa !9
  %46 = add nsw i32 %45, 1
  store i32 %46, ptr %8, align 4, !tbaa !9
  br label %12, !llvm.loop !29

47:                                               ; preds = %42, %26, %16
  call void @llvm.lifetime.end.p0(i64 4, ptr %8) #11
  %48 = load i32, ptr %9, align 4
  switch i32 %48, label %50 [
    i32 2, label %49
  ]

49:                                               ; preds = %47
  store i32 -1, ptr %3, align 4
  store i32 1, ptr %9, align 4
  br label %50

50:                                               ; preds = %49, %47
  call void @llvm.lifetime.end.p0(i64 8, ptr %7) #11
  call void @llvm.lifetime.end.p0(i64 4, ptr %6) #11
  %51 = load i32, ptr %3, align 4
  ret i32 %51
}