; Function Attrs: mustprogress nofree norecurse nosync nounwind willreturn memory(read, inaccessiblemem: none) uwtable
define dso_local noundef i32 @_ZNK6icu_774Norm7combineEi(ptr noundef nonnull readonly align 8 captures(none) dereferenceable(64) %0, i32 noundef %1) local_unnamed_addr #4 align 2 {
  %3 = getelementptr inbounds nuw i8, ptr %0, i64 32
  %4 = load ptr, ptr %3, align 8, !tbaa !17
  %5 = icmp eq ptr %4, null
  br i1 %5, label %.loopexit, label %_ZNK6icu_774Norm19getCompositionPairsERi.exit

_ZNK6icu_774Norm19getCompositionPairsERi.exit:    ; preds = %2
  %6 = getelementptr inbounds nuw i8, ptr %4, i64 8
  %7 = load i32, ptr %6, align 8, !tbaa !25
  %8 = getelementptr inbounds nuw i8, ptr %4, i64 24
  %9 = load ptr, ptr %8, align 8, !tbaa !29
  %10 = icmp sgt i32 %7, 1
  br i1 %10, label %.lr.ph.preheader, label %.loopexit

.lr.ph.preheader:                                 ; preds = %_ZNK6icu_774Norm19getCompositionPairsERi.exit
  %11 = lshr i32 %7, 1
  %wide.trip.count = zext nneg i32 %11 to i64
  br label %.lr.ph

.lr.ph:                                           ; preds = %15, %.lr.ph.preheader
  %indvars.iv = phi i64 [ 0, %.lr.ph.preheader ], [ %indvars.iv.next, %15 ]
  %12 = getelementptr inbounds nuw %"struct.icu_77::CompositionPair", ptr %9, i64 %indvars.iv
  %13 = load i32, ptr %12, align 4, !tbaa !30
  %14 = icmp eq i32 %1, %13
  br i1 %14, label %17, label %15

15:                                               ; preds = %.lr.ph
  %16 = icmp slt i32 %1, %13
  %indvars.iv.next = add nuw nsw i64 %indvars.iv, 1
  %exitcond.not = icmp eq i64 %indvars.iv.next, %wide.trip.count
  %or.cond = select i1 %16, i1 true, i1 %exitcond.not
  br i1 %or.cond, label %.loopexit, label %.lr.ph, !llvm.loop !32

17:                                               ; preds = %.lr.ph
  %18 = getelementptr inbounds nuw %"struct.icu_77::CompositionPair", ptr %9, i64 %indvars.iv, i32 1
  %19 = load i32, ptr %18, align 4, !tbaa !33
  br label %.loopexit

.loopexit:                                        ; preds = %15, %2, %_ZNK6icu_774Norm19getCompositionPairsERi.exit, %17
  %20 = phi i32 [ %19, %17 ], [ -1, %_ZNK6icu_774Norm19getCompositionPairsERi.exit ], [ -1, %2 ], [ -1, %15 ]
  ret i32 %20
}